target datalayout = "e-m:e-p270:32:32-p271:32:32-p272:64:64-i64:64-i128:128-f80:128-n8:16:32:64-S128"
target triple = "x86_64-pc-linux-gnu"

%"class.llvm::StringRef" = type { ptr, i64 }
%"class.llvm::StringLiteral" = type { %"class.llvm::StringRef" }
%"class.llvm::StringSwitch.36" = type { %"class.llvm::StringRef", %"class.std::optional.37" }
%"class.std::optional.37" = type { %"struct.std::_Optional_base.38" }
%"struct.std::_Optional_base.38" = type { %"struct.std::_Optional_payload.40" }
%"struct.std::_Optional_payload.40" = type { %"struct.std::_Optional_payload_base.base.42", [3 x i8] }
%"struct.std::_Optional_payload_base.base.42" = type <{ %"union.std::_Optional_payload_base<llvm::omp::NumTasksType>::_Storage", i8 }>
%"union.std::_Optional_payload_base<llvm::omp::NumTasksType>::_Storage" = type { i32 }
%"struct.std::_Optional_payload_base.41" = type <{ %"union.std::_Optional_payload_base<llvm::omp::NumTasksType>::_Storage", i8, [3 x i8] }>

@.str.219 = private unnamed_addr constant [7 x i8] c"strict\00", align 1
@.str.220 = private unnamed_addr constant [8 x i8] c"unkonwn\00", align 1

; Function Attrs: mustprogress nounwind uwtable
define linkonce_odr hidden void @_ZNSt22_Optional_payload_baseIN4llvm3omp12NumTasksTypeEE8_StorageIS2_Lb1EEC2IJS2_EEESt10in_place_tDpOT_(ptr noundef nonnull align 4 dereferenceable(4) %0, ptr noundef nonnull align 4 dereferenceable(4) %1) unnamed_addr #0 comdat align 2 {
  %3 = alloca ptr, align 8
  %4 = alloca ptr, align 8
  store ptr %0, ptr %3, align 8
  store ptr %1, ptr %4, align 8
  %5 = load ptr, ptr %3, align 8
  %6 = load ptr, ptr %4, align 8
  %7 = load i32, ptr %6, align 4
  store i32 %7, ptr %5, align 4
  ret void
}

; Function Attrs: mustprogress nounwind uwtable
define linkonce_odr hidden void @_ZNSt22_Optional_payload_baseIN4llvm3omp12NumTasksTypeEE8_StorageIS2_Lb1EEC2Ev(ptr noundef nonnull align 4 dereferenceable(4) %0) unnamed_addr #0 comdat align 2 {
  %2 = alloca ptr, align 8
  store ptr %0, ptr %2, align 8
  ret void
}

; Function Attrs: mustprogress nounwind uwtable
define linkonce_odr hidden void @_ZNSt22_Optional_payload_baseIN4llvm3omp12NumTasksTypeEEC2IJS2_EEESt10in_place_tDpOT_(ptr noundef nonnull align 4 dereferenceable(5) %0, ptr noundef nonnull align 4 dereferenceable(4) %1) unnamed_addr #0 comdat align 2 {
  %3 = alloca ptr, align 8
  %4 = alloca ptr, align 8
  store ptr %0, ptr %3, align 8
  store ptr %1, ptr %4, align 8
  %5 = load ptr, ptr %3, align 8
  %6 = getelementptr inbounds nuw %"struct.std::_Optional_payload_base.41", ptr %5, i32 0, i32 0
  %7 = load ptr, ptr %4, align 8
  call void @_ZNSt22_Optional_payload_baseIN4llvm3omp12NumTasksTypeEE8_StorageIS2_Lb1EEC2IJS2_EEESt10in_place_tDpOT_(ptr noundef nonnull align 4 dereferenceable(4) %6, ptr noundef nonnull align 4 dereferenceable(4) %7)
  %8 = getelementptr inbounds nuw %"struct.std::_Optional_payload_base.41", ptr %5, i32 0, i32 1
  store i8 1, ptr %8, align 4
  ret void
}

; Function Attrs: mustprogress nounwind uwtable
define linkonce_odr hidden void @_ZNSt22_Optional_payload_baseIN4llvm3omp12NumTasksTypeEEC2Ev(ptr noundef nonnull align 4 dereferenceable(5) %0) unnamed_addr #0 comdat align 2 {
  %2 = alloca ptr, align 8
  store ptr %0, ptr %2, align 8
  %3 = load ptr, ptr %2, align 8
  %4 = getelementptr inbounds nuw %"struct.std::_Optional_payload_base.41", ptr %3, i32 0, i32 0
  call void @_ZNSt22_Optional_payload_baseIN4llvm3omp12NumTasksTypeEE8_StorageIS2_Lb1EEC2Ev(ptr noundef nonnull align 4 dereferenceable(4) %4) #7
  %5 = getelementptr inbounds nuw %"struct.std::_Optional_payload_base.41", ptr %3, i32 0, i32 1
  store i8 0, ptr %5, align 4
  ret void
}

; Function Attrs: mustprogress nounwind uwtable
define linkonce_odr hidden noundef nonnull align 4 dereferenceable(4) ptr @_ZNSt22_Optional_payload_baseIN4llvm3omp12NumTasksTypeEE6_M_getEv(ptr noundef nonnull align 4 dereferenceable(5) %0) #0 comdat align 2 {
  %2 = alloca ptr, align 8
  store ptr %0, ptr %2, align 8
  %3 = load ptr, ptr %2, align 8
  %4 = getelementptr inbounds nuw %"struct.std::_Optional_payload_base.41", ptr %3, i32 0, i32 0
  ret ptr %4
}

; Function Attrs: mustprogress nounwind uwtable
define linkonce_odr hidden void @_ZNSt17_Optional_payloadIN4llvm3omp12NumTasksTypeELb1ELb1ELb1EECI2St22_Optional_payload_baseIS2_EIJS2_EEESt10in_place_tDpOT_(ptr noundef nonnull align 4 dereferenceable(5) %0, ptr noundef nonnull align 4 dereferenceable(4) %1) unnamed_addr #0 comdat align 2 {
  %3 = alloca ptr, align 8
  %4 = alloca ptr, align 8
  store ptr %0, ptr %3, align 8
  store ptr %1, ptr %4, align 8
  %5 = load ptr, ptr %3, align 8
  %6 = load ptr, ptr %4, align 8
  call void @_ZNSt22_Optional_payload_baseIN4llvm3omp12NumTasksTypeEEC2IJS2_EEESt10in_place_tDpOT_(ptr noundef nonnull align 4 dereferenceable(5) %5, ptr noundef nonnull align 4 dereferenceable(4) %6)
  ret void
}

; Function Attrs: mustprogress nounwind uwtable
define linkonce_odr hidden void @_ZNSt17_Optional_payloadIN4llvm3omp12NumTasksTypeELb1ELb1ELb1EEC2Ev(ptr noundef nonnull align 4 dereferenceable(5) %0) unnamed_addr #0 comdat align 2 {
  %2 = alloca ptr, align 8
  store ptr %0, ptr %2, align 8
  %3 = load ptr, ptr %2, align 8
  call void @_ZNSt22_Optional_payload_baseIN4llvm3omp12NumTasksTypeEEC2Ev(ptr noundef nonnull align 4 dereferenceable(5) %3) #7
  ret void
}

; Function Attrs: mustprogress nounwind uwtable
define linkonce_odr hidden noundef nonnull align 4 dereferenceable(4) ptr @_ZNSt19_Optional_base_implIN4llvm3omp12NumTasksTypeESt14_Optional_baseIS2_Lb1ELb1EEE6_M_getEv(ptr noundef nonnull align 1 dereferenceable(1) %0) #0 comdat align 2 {
  %2 = alloca ptr, align 8
  store ptr %0, ptr %2, align 8
  %3 = load ptr, ptr %2, align 8
  br label %4

4:                                                ; preds = %1
  br label %5

5:                                                ; preds = %4
  %6 = getelementptr inbounds nuw %"struct.std::_Optional_base.38", ptr %3, i32 0, i32 0
  %7 = call noundef nonnull align 4 dereferenceable(4) ptr @_ZNSt22_Optional_payload_baseIN4llvm3omp12NumTasksTypeEE6_M_getEv(ptr noundef nonnull align 4 dereferenceable(5) %6) #7
  ret ptr %7
}

; Function Attrs: mustprogress nounwind uwtable
define linkonce_odr hidden void @_ZNSt14_Optional_baseIN4llvm3omp12NumTasksTypeELb1ELb1EEC2IJS2_ETnNSt9enable_ifIX18is_constructible_vIS2_DpT_EEbE4typeELb0EEESt10in_place_tDpOS6_(ptr noundef nonnull align 4 dereferenceable(8) %0, ptr noundef nonnull align 4 dereferenceable(4) %1) unnamed_addr #0 comdat align 2 {
  %3 = alloca ptr, align 8
  %4 = alloca ptr, align 8
  store ptr %0, ptr %3, align 8
  store ptr %1, ptr %4, align 8
  %5 = load ptr, ptr %3, align 8
  %6 = getelementptr inbounds nuw %"struct.std::_Optional_base.38", ptr %5, i32 0, i32 0
  %7 = load ptr, ptr %4, align 8
  call void @_ZNSt17_Optional_payloadIN4llvm3omp12NumTasksTypeELb1ELb1ELb1EECI2St22_Optional_payload_baseIS2_EIJS2_EEESt10in_place_tDpOT_(ptr noundef nonnull align 4 dereferenceable(5) %6, ptr noundef nonnull align 4 dereferenceable(4) %7)
  ret void
}

; Function Attrs: mustprogress nounwind uwtable
define linkonce_odr hidden noundef ptr @_ZNK4llvm9StringRef4dataEv(ptr noundef nonnull align 8 dereferenceable(16) %0) #0 comdat align 2 {
  %2 = alloca ptr, align 8
  store ptr %0, ptr %2, align 8
  %3 = load ptr, ptr %2, align 8
  %4 = getelementptr inbounds nuw %"class.llvm::StringRef", ptr %3, i32 0, i32 0
  %5 = load ptr, ptr %4, align 8
  ret ptr %5
}

; Function Attrs: mustprogress nounwind uwtable
define linkonce_odr hidden noundef zeroext i1 @_ZNK4llvm9StringRef5emptyEv(ptr noundef nonnull align 8 dereferenceable(16) %0) #0 comdat align 2 {
  %2 = alloca ptr, align 8
  store ptr %0, ptr %2, align 8
  %3 = load ptr, ptr %2, align 8
  %4 = getelementptr inbounds nuw %"class.llvm::StringRef", ptr %3, i32 0, i32 1
  %5 = load i64, ptr %4, align 8
  %6 = icmp eq i64 %5, 0
  ret i1 %6
}

; Function Attrs: mustprogress nounwind uwtable
define linkonce_odr hidden noundef i64 @_ZNK4llvm9StringRef4sizeEv(ptr noundef nonnull align 8 dereferenceable(16) %0) #0 comdat align 2 {
  %2 = alloca ptr, align 8
  store ptr %0, ptr %2, align 8
  %3 = load ptr, ptr %2, align 8
  %4 = getelementptr inbounds nuw %"class.llvm::StringRef", ptr %3, i32 0, i32 1
  %5 = load i64, ptr %4, align 8
  ret i64 %5
}

; Function Attrs: mustprogress nounwind uwtable
define linkonce_odr hidden noundef zeroext i1 @_ZNKSt19_Optional_base_implIN4llvm3omp12NumTasksTypeESt14_Optional_baseIS2_Lb1ELb1EEE13_M_is_engagedEv(ptr noundef nonnull align 1 dereferenceable(1) %0) #0 comdat align 2 {
  %2 = alloca ptr, align 8
  store ptr %0, ptr %2, align 8
  %3 = load ptr, ptr %2, align 8
  %4 = getelementptr inbounds nuw %"struct.std::_Optional_base.38", ptr %3, i32 0, i32 0
  %5 = getelementptr inbounds nuw %"struct.std::_Optional_payload_base.41", ptr %4, i32 0, i32 1
  %6 = load i8, ptr %5, align 4
  %7 = trunc i8 %6 to i1
  ret i1 %7
}

; Function Attrs: mustprogress nounwind uwtable
define linkonce_odr hidden void @_ZNSt14_Optional_baseIN4llvm3omp12NumTasksTypeELb1ELb1EEC2Ev(ptr noundef nonnull align 4 dereferenceable(8) %0) unnamed_addr #0 comdat align 2 {
  %2 = alloca ptr, align 8
  store ptr %0, ptr %2, align 8
  %3 = load ptr, ptr %2, align 8
  %4 = getelementptr inbounds nuw %"struct.std::_Optional_base.38", ptr %3, i32 0, i32 0
  call void @_ZNSt17_Optional_payloadIN4llvm3omp12NumTasksTypeELb1ELb1ELb1EEC2Ev(ptr noundef nonnull align 4 dereferenceable(5) %4) #7
  ret void
}

; Function Attrs: mustprogress nounwind uwtable
define linkonce_odr hidden noundef nonnull align 4 dereferenceable(4) ptr @_ZNRSt8optionalIN4llvm3omp12NumTasksTypeEEdeEv(ptr noundef nonnull align 4 dereferenceable(8) %0) #0 comdat align 2 {
  %2 = alloca ptr, align 8
  store ptr %0, ptr %2, align 8
  %3 = load ptr, ptr %2, align 8
  %4 = call noundef nonnull align 4 dereferenceable(4) ptr @_ZNSt19_Optional_base_implIN4llvm3omp12NumTasksTypeESt14_Optional_baseIS2_Lb1ELb1EEE6_M_getEv(ptr noundef nonnull align 1 dereferenceable(1) %3) #7
  ret ptr %4
}

; Function Attrs: mustprogress nounwind uwtable
define linkonce_odr hidden void @_ZNSt8optionalIN4llvm3omp12NumTasksTypeEEC2IS2_TnNSt9enable_ifIX7__and_vISt6__not_ISt7is_sameIS3_NSt9remove_cvINSt16remove_referenceIT_E4typeEE4typeEEES6_IS7_ISt10in_place_tSE_EESt16is_constructibleIS2_JSA_EESt14is_convertibleISA_S2_EEEbE4typeELb1EEEOSA_(ptr noundef nonnull align 4 dereferenceable(8) %0, ptr noundef nonnull align 4 dereferenceable(4) %1) unnamed_addr #0 comdat align 2 {
  %3 = alloca ptr, align 8
  %4 = alloca ptr, align 8
  store ptr %0, ptr %3, align 8
  store ptr %1, ptr %4, align 8
  %5 = load ptr, ptr %3, align 8
  %6 = load ptr, ptr %4, align 8
  call void @_ZNSt14_Optional_baseIN4llvm3omp12NumTasksTypeELb1ELb1EEC2IJS2_ETnNSt9enable_ifIX18is_constructible_vIS2_DpT_EEbE4typeELb0EEESt10in_place_tDpOS6_(ptr noundef nonnull align 4 dereferenceable(8) %5, ptr noundef nonnull align 4 dereferenceable(4) %6)
  ret void
}

; Function Attrs: mustprogress nounwind uwtable
define linkonce_odr hidden noundef zeroext i1 @_ZN4llvmeqENS_9StringRefES0_(ptr %0, i64 %1, ptr %2, i64 %3) #0 comdat {
  %5 = alloca i1, align 1
  %6 = alloca %"class.llvm::StringRef", align 8
  %7 = alloca %"class.llvm::StringRef", align 8
  %8 = getelementptr inbounds nuw { ptr, i64 }, ptr %6, i32 0, i32 0
  store ptr %0, ptr %8, align 8
  %9 = getelementptr inbounds nuw { ptr, i64 }, ptr %6, i32 0, i32 1
  store i64 %1, ptr %9, align 8
  %10 = getelementptr inbounds nuw { ptr, i64 }, ptr %7, i32 0, i32 0
  store ptr %2, ptr %10, align 8
  %11 = getelementptr inbounds nuw { ptr, i64 }, ptr %7, i32 0, i32 1
  store i64 %3, ptr %11, align 8
  %12 = call noundef i64 @_ZNK4llvm9StringRef4sizeEv(ptr noundef nonnull align 8 dereferenceable(16) %6)
  %13 = call noundef i64 @_ZNK4llvm9StringRef4sizeEv(ptr noundef nonnull align 8 dereferenceable(16) %7)
  %14 = icmp ne i64 %12, %13
  br i1 %14, label %15, label %16

15:                                               ; preds = %4
  store i1 false, ptr %5, align 1
  br label %25

16:                                               ; preds = %4
  %17 = call noundef zeroext i1 @_ZNK4llvm9StringRef5emptyEv(ptr noundef nonnull align 8 dereferenceable(16) %6)
  br i1 %17, label %18, label %19

18:                                               ; preds = %16
  store i1 true, ptr %5, align 1
  br label %25

19:                                               ; preds = %16
  %20 = call noundef ptr @_ZNK4llvm9StringRef4dataEv(ptr noundef nonnull align 8 dereferenceable(16) %6)
  %21 = call noundef ptr @_ZNK4llvm9StringRef4dataEv(ptr noundef nonnull align 8 dereferenceable(16) %7)
  %22 = call noundef i64 @_ZNK4llvm9StringRef4sizeEv(ptr noundef nonnull align 8 dereferenceable(16) %6)
  %23 = call i32 @memcmp(ptr noundef %20, ptr noundef %21, i64 noundef %22) #9
  %24 = icmp eq i32 %23, 0
  store i1 %24, ptr %5, align 1
  br label %25

25:                                               ; preds = %19, %18, %15
  %26 = load i1, ptr %5, align 1
  ret i1 %26
}

; Function Attrs: mustprogress nounwind uwtable
define linkonce_odr hidden noundef zeroext i1 @_ZNKSt8optionalIN4llvm3omp12NumTasksTypeEEcvbEv(ptr noundef nonnull align 4 dereferenceable(8) %0) #0 comdat align 2 {
  %2 = alloca ptr, align 8
  store ptr %0, ptr %2, align 8
  %3 = load ptr, ptr %2, align 8
  %4 = call noundef zeroext i1 @_ZNKSt19_Optional_base_implIN4llvm3omp12NumTasksTypeESt14_Optional_baseIS2_Lb1ELb1EEE13_M_is_engagedEv(ptr noundef nonnull align 1 dereferenceable(1) %3) #7
  ret i1 %4
}

; Function Attrs: mustprogress nounwind uwtable
define linkonce_odr hidden void @_ZN4llvm9StringRefC2EPKcm(ptr noundef nonnull align 8 dereferenceable(16) %0, ptr noundef %1, i64 noundef %2) unnamed_addr #0 comdat align 2 {
  %4 = alloca ptr, align 8
  %5 = alloca ptr, align 8
  %6 = alloca i64, align 8
  store ptr %0, ptr %4, align 8
  store ptr %1, ptr %5, align 8
  store i64 %2, ptr %6, align 8
  %7 = load ptr, ptr %4, align 8
  %8 = getelementptr inbounds nuw %"class.llvm::StringRef", ptr %7, i32 0, i32 0
  %9 = load ptr, ptr %5, align 8
  store ptr %9, ptr %8, align 8
  %10 = getelementptr inbounds nuw %"class.llvm::StringRef", ptr %7, i32 0, i32 1
  %11 = load i64, ptr %6, align 8
  store i64 %11, ptr %10, align 8
  ret void
}

; Function Attrs: mustprogress nounwind uwtable
define linkonce_odr hidden void @_ZNSt8optionalIN4llvm3omp12NumTasksTypeEEC2Ev(ptr noundef nonnull align 4 dereferenceable(8) %0) unnamed_addr #0 comdat align 2 {
  %2 = alloca ptr, align 8
  store ptr %0, ptr %2, align 8
  %3 = load ptr, ptr %2, align 8
  call void @_ZNSt14_Optional_baseIN4llvm3omp12NumTasksTypeELb1ELb1EEC2Ev(ptr noundef nonnull align 4 dereferenceable(8) %3) #7
  ret void
}

; Function Attrs: mustprogress nounwind uwtable
define linkonce_odr hidden noundef i32 @_ZN4llvm12StringSwitchINS_3omp12NumTasksTypeES2_E7DefaultES2_(ptr noundef nonnull align 8 dereferenceable(24) %0, i32 noundef %1) #0 comdat align 2 {
  %3 = alloca i32, align 4
  %4 = alloca ptr, align 8
  %5 = alloca i32, align 4
  store ptr %0, ptr %4, align 8
  store i32 %1, ptr %5, align 4
  %6 = load ptr, ptr %4, align 8
  %7 = getelementptr inbounds nuw %"class.llvm::StringSwitch.36", ptr %6, i32 0, i32 1
  %8 = call noundef zeroext i1 @_ZNKSt8optionalIN4llvm3omp12NumTasksTypeEEcvbEv(ptr noundef nonnull align 4 dereferenceable(8) %7) #7
  br i1 %8, label %9, label %13

9:                                                ; preds = %2
  %10 = getelementptr inbounds nuw %"class.llvm::StringSwitch.36", ptr %6, i32 0, i32 1
  %11 = call noundef nonnull align 4 dereferenceable(4) ptr @_ZNRSt8optionalIN4llvm3omp12NumTasksTypeEEdeEv(ptr noundef nonnull align 4 dereferenceable(8) %10) #7
  %12 = load i32, ptr %11, align 4
  store i32 %12, ptr %3, align 4
  br label %15

13:                                               ; preds = %2
  %14 = load i32, ptr %5, align 4
  store i32 %14, ptr %3, align 4
  br label %15

15:                                               ; preds = %13, %9
  %16 = load i32, ptr %3, align 4
  ret i32 %16
}

; Function Attrs: mustprogress nounwind uwtable
define linkonce_odr hidden void @_ZN4llvm13StringLiteralC2ILm8EEEUa9enable_ifIXeqclL_Z16__builtin_strlenEfL0p_EmiLm8ELi1EEERAT__Kc(ptr noundef nonnull align 8 dereferenceable(16) %0, ptr noundef nonnull align 1 dereferenceable(8) %1) unnamed_addr #0 comdat align 2 {
  %3 = alloca ptr, align 8
  %4 = alloca ptr, align 8
  store ptr %0, ptr %3, align 8
  store ptr %1, ptr %4, align 8
  %5 = load ptr, ptr %3, align 8
  %6 = load ptr, ptr %4, align 8
  %7 = getelementptr inbounds [8 x i8], ptr %6, i64 0, i64 0
  call void @_ZN4llvm9StringRefC2EPKcm(ptr noundef nonnull align 8 dereferenceable(16) %5, ptr noundef %7, i64 noundef 7)
  ret void
}

; Function Attrs: mustprogress nounwind uwtable
define linkonce_odr hidden noundef nonnull align 8 dereferenceable(24) ptr @_ZN4llvm12StringSwitchINS_3omp12NumTasksTypeES2_E4CaseENS_13StringLiteralES2_(ptr noundef nonnull align 8 dereferenceable(24) %0, ptr %1, i64 %2, i32 noundef %3) #0 comdat align 2 {
  %5 = alloca %"class.llvm::StringLiteral", align 8
  %6 = alloca ptr, align 8
  %7 = alloca i32, align 4
  %8 = alloca %"class.llvm::StringRef", align 8
  %9 = alloca %"class.llvm::StringRef", align 8
  %10 = alloca %"class.std::optional.37", align 4
  %11 = getelementptr inbounds nuw { ptr, i64 }, ptr %5, i32 0, i32 0
  store ptr %1, ptr %11, align 8
  %12 = getelementptr inbounds nuw { ptr, i64 }, ptr %5, i32 0, i32 1
  store i64 %2, ptr %12, align 8
  store ptr %0, ptr %6, align 8
  store i32 %3, ptr %7, align 4
  %13 = load ptr, ptr %6, align 8
  %14 = getelementptr inbounds nuw %"class.llvm::StringSwitch.36", ptr %13, i32 0, i32 1
  %15 = call noundef zeroext i1 @_ZNKSt8optionalIN4llvm3omp12NumTasksTypeEEcvbEv(ptr noundef nonnull align 4 dereferenceable(8) %14) #7
  br i1 %15, label %29, label %16

16:                                               ; preds = %4
  %17 = getelementptr inbounds nuw %"class.llvm::StringSwitch.36", ptr %13, i32 0, i32 0
  call void @llvm.memcpy.p0.p0.i64(ptr align 8 %8, ptr align 8 %17, i64 16, i1 false)
  call void @llvm.memcpy.p0.p0.i64(ptr align 8 %9, ptr align 8 %5, i64 16, i1 false)
  %18 = getelementptr inbounds nuw { ptr, i64 }, ptr %8, i32 0, i32 0
  %19 = load ptr, ptr %18, align 8
  %20 = getelementptr inbounds nuw { ptr, i64 }, ptr %8, i32 0, i32 1
  %21 = load i64, ptr %20, align 8
  %22 = getelementptr inbounds nuw { ptr, i64 }, ptr %9, i32 0, i32 0
  %23 = load ptr, ptr %22, align 8
  %24 = getelementptr inbounds nuw { ptr, i64 }, ptr %9, i32 0, i32 1
  %25 = load i64, ptr %24, align 8
  %26 = call noundef zeroext i1 @_ZN4llvmeqENS_9StringRefES0_(ptr %19, i64 %21, ptr %23, i64 %25)
  br i1 %26, label %27, label %29

27:                                               ; preds = %16
  call void @_ZNSt8optionalIN4llvm3omp12NumTasksTypeEEC2IS2_TnNSt9enable_ifIX7__and_vISt6__not_ISt7is_sameIS3_NSt9remove_cvINSt16remove_referenceIT_E4typeEE4typeEEES6_IS7_ISt10in_place_tSE_EESt16is_constructibleIS2_JSA_EESt14is_convertibleISA_S2_EEEbE4typeELb1EEEOSA_(ptr noundef nonnull align 4 dereferenceable(8) %10, ptr noundef nonnull align 4 dereferenceable(4) %7) #7
  %28 = getelementptr inbounds nuw %"class.llvm::StringSwitch.36", ptr %13, i32 0, i32 1
  call void @llvm.memcpy.p0.p0.i64(ptr align 8 %28, ptr align 4 %10, i64 8, i1 false)
  br label %29

29:                                               ; preds = %27, %16, %4
  ret ptr %13
}

; Function Attrs: mustprogress nounwind uwtable
define linkonce_odr hidden void @_ZN4llvm13StringLiteralC2ILm7EEEUa9enable_ifIXeqclL_Z16__builtin_strlenEfL0p_EmiLm7ELi1EEERAT__Kc(ptr noundef nonnull align 8 dereferenceable(16) %0, ptr noundef nonnull align 1 dereferenceable(7) %1) unnamed_addr #0 comdat align 2 {
  %3 = alloca ptr, align 8
  %4 = alloca ptr, align 8
  store ptr %0, ptr %3, align 8
  store ptr %1, ptr %4, align 8
  %5 = load ptr, ptr %3, align 8
  %6 = load ptr, ptr %4, align 8
  %7 = getelementptr inbounds [7 x i8], ptr %6, i64 0, i64 0
  call void @_ZN4llvm9StringRefC2EPKcm(ptr noundef nonnull align 8 dereferenceable(16) %5, ptr noundef %7, i64 noundef 6)
  ret void
}

; Function Attrs: mustprogress nounwind uwtable
define linkonce_odr hidden void @_ZN4llvm12StringSwitchINS_3omp12NumTasksTypeES2_EC2ENS_9StringRefE(ptr noundef nonnull align 8 dereferenceable(24) %0, ptr %1, i64 %2) unnamed_addr #0 comdat align 2 {
  %4 = alloca %"class.llvm::StringRef", align 8
  %5 = alloca ptr, align 8
  %6 = getelementptr inbounds nuw { ptr, i64 }, ptr %4, i32 0, i32 0
  store ptr %1, ptr %6, align 8
  %7 = getelementptr inbounds nuw { ptr, i64 }, ptr %4, i32 0, i32 1
  store i64 %2, ptr %7, align 8
  store ptr %0, ptr %5, align 8
  %8 = load ptr, ptr %5, align 8
  %9 = getelementptr inbounds nuw %"class.llvm::StringSwitch.36", ptr %8, i32 0, i32 0
  call void @llvm.memcpy.p0.p0.i64(ptr align 8 %9, ptr align 8 %4, i64 16, i1 false)
  %10 = getelementptr inbounds nuw %"class.llvm::StringSwitch.36", ptr %8, i32 0, i32 1
  call void @_ZNSt8optionalIN4llvm3omp12NumTasksTypeEEC2Ev(ptr noundef nonnull align 4 dereferenceable(8) %10) #7
  ret void
}

; Function Attrs: mustprogress nounwind uwtable
define dso_local noundef i32 @_ZN4llvm3omp15getNumTasksTypeENS_9StringRefE(ptr %0, i64 %1) #0 {
  %3 = alloca %"class.llvm::StringRef", align 8
  %4 = alloca %"class.llvm::StringSwitch.36", align 8
  %5 = alloca %"class.llvm::StringRef", align 8
  %6 = alloca %"class.llvm::StringLiteral", align 8
  %7 = alloca %"class.llvm::StringLiteral", align 8
  %8 = getelementptr inbounds nuw { ptr, i64 }, ptr %3, i32 0, i32 0
  store ptr %0, ptr %8, align 8
  %9 = getelementptr inbounds nuw { ptr, i64 }, ptr %3, i32 0, i32 1
  store i64 %1, ptr %9, align 8
  call void @llvm.memcpy.p0.p0.i64(ptr align 8 %5, ptr align 8 %3, i64 16, i1 false)
  %10 = getelementptr inbounds nuw { ptr, i64 }, ptr %5, i32 0, i32 0
  %11 = load ptr, ptr %10, align 8
  %12 = getelementptr inbounds nuw { ptr, i64 }, ptr %5, i32 0, i32 1
  %13 = load i64, ptr %12, align 8
  call void @_ZN4llvm12StringSwitchINS_3omp12NumTasksTypeES2_EC2ENS_9StringRefE(ptr noundef nonnull align 8 dereferenceable(24) %4, ptr %11, i64 %13)
  call void @_ZN4llvm13StringLiteralC2ILm7EEEUa9enable_ifIXeqclL_Z16__builtin_strlenEfL0p_EmiLm7ELi1EEERAT__Kc(ptr noundef nonnull align 8 dereferenceable(16) %6, ptr noundef nonnull align 1 dereferenceable(7) @.str.219)
  %14 = getelementptr inbounds nuw { ptr, i64 }, ptr %6, i32 0, i32 0
  %15 = load ptr, ptr %14, align 8
  %16 = getelementptr inbounds nuw { ptr, i64 }, ptr %6, i32 0, i32 1
  %17 = load i64, ptr %16, align 8
  %18 = call noundef nonnull align 8 dereferenceable(24) ptr @_ZN4llvm12StringSwitchINS_3omp12NumTasksTypeES2_E4CaseENS_13StringLiteralES2_(ptr noundef nonnull align 8 dereferenceable(24) %4, ptr %15, i64 %17, i32 noundef 1)
  call void @_ZN4llvm13StringLiteralC2ILm8EEEUa9enable_ifIXeqclL_Z16__builtin_strlenEfL0p_EmiLm8ELi1EEERAT__Kc(ptr noundef nonnull align 8 dereferenceable(16) %7, ptr noundef nonnull align 1 dereferenceable(8) @.str.220)
  %19 = getelementptr inbounds nuw { ptr, i64 }, ptr %7, i32 0, i32 0
  %20 = load ptr, ptr %19, align 8
  %21 = getelementptr inbounds nuw { ptr, i64 }, ptr %7, i32 0, i32 1
  %22 = load i64, ptr %21, align 8
  %23 = call noundef nonnull align 8 dereferenceable(24) ptr @_ZN4llvm12StringSwitchINS_3omp12NumTasksTypeES2_E4CaseENS_13StringLiteralES2_(ptr noundef nonnull align 8 dereferenceable(24) %18, ptr %20, i64 %22, i32 noundef 2)
  %24 = call noundef i32 @_ZN4llvm12StringSwitchINS_3omp12NumTasksTypeES2_E7DefaultES2_(ptr noundef nonnull align 8 dereferenceable(24) %23, i32 noundef 2)
  ret i32 %24
}